; Function Attrs: nounwind uwtable
define noalias noundef ptr @H5FL_arr_free(ptr noundef captures(none) %0, ptr noundef %1) local_unnamed_addr #0 {
  %3 = load i8, ptr @H5FL_init_g, align 1, !tbaa !3, !range !7, !noundef !8
  %4 = trunc nuw i8 %3 to i1
  %5 = load i8, ptr @H5_libterm_g, align 1, !range !7
  %6 = trunc nuw i8 %5 to i1
  %not. = xor i1 %4, true
  %.not20 = select i1 %not., i1 %6, i1 false
  %.not = icmp eq ptr %1, null
  %or.cond = or i1 %.not, %.not20
  br i1 %or.cond, label %79, label %7, !prof !64

7:                                                ; preds = %2
  %8 = getelementptr inbounds i8, ptr %1, i64 -8
  %9 = load i64, ptr %8, align 8, !tbaa !96
  %10 = getelementptr inbounds nuw i8, ptr %0, i64 48
  %11 = load ptr, ptr %10, align 8, !tbaa !48
  %12 = getelementptr inbounds nuw %struct.H5FL_arr_node_t, ptr %11, i64 %9, i32 3
  %13 = load ptr, ptr %12, align 8, !tbaa !105
  store ptr %13, ptr %8, align 8, !tbaa !96
  %14 = load ptr, ptr %10, align 8, !tbaa !48
  %15 = getelementptr inbounds nuw %struct.H5FL_arr_node_t, ptr %14, i64 %9, i32 3
  store ptr %8, ptr %15, align 8, !tbaa !105
  %16 = getelementptr inbounds nuw %struct.H5FL_arr_node_t, ptr %14, i64 %9
  %17 = load i64, ptr %16, align 8, !tbaa !108
  %18 = getelementptr inbounds nuw i8, ptr %16, i64 12
  %19 = load i32, ptr %18, align 4, !tbaa !109
  %20 = add i32 %19, 1
  store i32 %20, ptr %18, align 4, !tbaa !109
  %21 = getelementptr inbounds nuw i8, ptr %0, i64 8
  %22 = load i64, ptr %21, align 8, !tbaa !110
  %23 = add i64 %22, %17
  store i64 %23, ptr %21, align 8, !tbaa !110
  %24 = load i64, ptr @H5FL_arr_gc_head.0, align 8, !tbaa !111
  %25 = add i64 %24, %17
  store i64 %25, ptr @H5FL_arr_gc_head.0, align 8, !tbaa !111
  %26 = load i64, ptr @H5FL_arr_lst_mem_lim, align 8, !tbaa !86
  %27 = icmp ugt i64 %23, %26
  br i1 %27, label %28, label %H5FL__arr_gc_list.exit

28:                                               ; preds = %7
  %29 = load i8, ptr @H5_libterm_g, align 1, !range !7
  %30 = trunc nuw i8 %29 to i1
  %31 = xor i1 %30, true
  %32 = select i1 %4, i1 true, i1 %31
  br i1 %32, label %.preheader.i, label %H5FL__arr_gc_list.exit, !prof !15

.preheader.i:                                     ; preds = %28
  %33 = getelementptr inbounds nuw i8, ptr %0, i64 24
  %34 = load i32, ptr %33, align 8, !tbaa !112
  %.not36.i = icmp eq i32 %34, 0
  br i1 %.not36.i, label %H5FL__arr_gc_list.exit, label %.lr.ph35.i

.lr.ph35.i:                                       ; preds = %.preheader.i
  %35 = getelementptr inbounds nuw i8, ptr %0, i64 4
  br label %36

36:                                               ; preds = %67, %.lr.ph35.i
  %37 = phi i64 [ %25, %.lr.ph35.i ], [ %68, %67 ]
  %38 = phi i64 [ %23, %.lr.ph35.i ], [ %69, %67 ]
  %.pre3940.i = phi i32 [ %34, %.lr.ph35.i ], [ %.pre3941.i, %67 ]
  %39 = phi i32 [ %34, %.lr.ph35.i ], [ %70, %67 ]
  %40 = phi ptr [ %14, %.lr.ph35.i ], [ %71, %67 ]
  %41 = phi ptr [ %14, %.lr.ph35.i ], [ %72, %67 ]
  %indvars.iv.i = phi i64 [ 0, %.lr.ph35.i ], [ %indvars.iv.next.i, %67 ]
  %42 = getelementptr inbounds nuw %struct.H5FL_arr_node_t, ptr %41, i64 %indvars.iv.i
  %43 = getelementptr inbounds nuw i8, ptr %42, i64 12
  %44 = load i32, ptr %43, align 4, !tbaa !109
  %.not.i = icmp eq i32 %44, 0
  br i1 %.not.i, label %67, label %45

45:                                               ; preds = %36
  %46 = getelementptr inbounds nuw i8, ptr %42, i64 16
  %47 = load ptr, ptr %46, align 8, !tbaa !105
  %.not3132.i = icmp eq ptr %47, null
  br i1 %.not3132.i, label %._crit_edge.i, label %.lr.ph.i

.lr.ph.i:                                         ; preds = %45, %.lr.ph.i
  %.03033.i = phi ptr [ %48, %.lr.ph.i ], [ %47, %45 ]
  %48 = load ptr, ptr %.03033.i, align 8, !tbaa !96
  tail call void @free(ptr noundef nonnull %.03033.i) #10
  %.not31.i = icmp eq ptr %48, null
  br i1 %.not31.i, label %._crit_edge.loopexit.i, label %.lr.ph.i, !llvm.loop !113

._crit_edge.loopexit.i:                           ; preds = %.lr.ph.i
  %.pre38.i = load ptr, ptr %10, align 8, !tbaa !48
  %.pre39.pre.i = load i32, ptr %33, align 8, !tbaa !112
  %.pre = load i64, ptr %21, align 8, !tbaa !110
  %.pre21 = load i64, ptr @H5FL_arr_gc_head.0, align 8, !tbaa !111
  br label %._crit_edge.i

._crit_edge.i:                                    ; preds = %._crit_edge.loopexit.i, %45
  %49 = phi i64 [ %.pre21, %._crit_edge.loopexit.i ], [ %37, %45 ]
  %50 = phi i64 [ %.pre, %._crit_edge.loopexit.i ], [ %38, %45 ]
  %.pre39.i = phi i32 [ %.pre39.pre.i, %._crit_edge.loopexit.i ], [ %.pre3940.i, %45 ]
  %51 = phi ptr [ %.pre38.i, %._crit_edge.loopexit.i ], [ %40, %45 ]
  %52 = getelementptr inbounds nuw %struct.H5FL_arr_node_t, ptr %51, i64 %indvars.iv.i
  %53 = getelementptr inbounds nuw i8, ptr %52, i64 12
  %54 = load i32, ptr %53, align 4, !tbaa !109
  %55 = getelementptr inbounds nuw i8, ptr %52, i64 8
  %56 = load i32, ptr %55, align 8, !tbaa !114
  %57 = sub i32 %56, %54
  store i32 %57, ptr %55, align 8, !tbaa !114
  %58 = getelementptr inbounds nuw %struct.H5FL_arr_node_t, ptr %51, i64 %indvars.iv.i, i32 2
  %59 = load i32, ptr %35, align 4, !tbaa !45
  %60 = sub i32 %59, %54
  store i32 %60, ptr %35, align 4, !tbaa !45
  %61 = zext i32 %54 to i64
  %62 = load i64, ptr %52, align 8, !tbaa !108
  %63 = mul i64 %62, %61
  %64 = sub i64 %50, %63
  store i64 %64, ptr %21, align 8, !tbaa !110
  %65 = sub i64 %49, %63
  store i64 %65, ptr @H5FL_arr_gc_head.0, align 8, !tbaa !111
  %66 = getelementptr inbounds nuw %struct.H5FL_arr_node_t, ptr %51, i64 %indvars.iv.i, i32 3
  store ptr null, ptr %66, align 8, !tbaa !105
  store i32 0, ptr %58, align 4, !tbaa !109
  br label %67

67:                                               ; preds = %._crit_edge.i, %36
  %68 = phi i64 [ %37, %36 ], [ %65, %._crit_edge.i ]
  %69 = phi i64 [ %38, %36 ], [ %64, %._crit_edge.i ]
  %.pre3941.i = phi i32 [ %.pre3940.i, %36 ], [ %.pre39.i, %._crit_edge.i ]
  %70 = phi i32 [ %39, %36 ], [ %.pre39.i, %._crit_edge.i ]
  %71 = phi ptr [ %40, %36 ], [ %51, %._crit_edge.i ]
  %72 = phi ptr [ %41, %36 ], [ %51, %._crit_edge.i ]
  %indvars.iv.next.i = add nuw nsw i64 %indvars.iv.i, 1
  %73 = zext i32 %70 to i64
  %74 = icmp samesign ult i64 %indvars.iv.next.i, %73
  br i1 %74, label %36, label %H5FL__arr_gc_list.exit, !llvm.loop !115

H5FL__arr_gc_list.exit:                           ; preds = %67, %.preheader.i, %28, %7
  %75 = phi i64 [ %25, %.preheader.i ], [ %25, %28 ], [ %25, %7 ], [ %68, %67 ]
  %76 = load i64, ptr @H5FL_arr_glb_mem_lim, align 8, !tbaa !86
  %77 = icmp ugt i64 %75, %76
  br i1 %77, label %78, label %79

78:                                               ; preds = %H5FL__arr_gc_list.exit
  tail call fastcc void @H5FL__arr_gc()
  br label %79

79:                                               ; preds = %78, %H5FL__arr_gc_list.exit, %2
  ret ptr null
}